; Function Attrs: mustprogress nofree norecurse nosync nounwind willreturn memory(read, inaccessiblemem: none) uwtable
define dso_local noundef i32 @_ZN4llvm25getNumValueKindsInstrProfEPKv(ptr noundef readonly captures(none) %0) #8 {
  %2 = getelementptr inbounds nuw i8, ptr %0, i64 48
  %3 = load ptr, ptr %2, align 8
  %.not.i.i = icmp eq ptr %3, null
  br i1 %.not.i.i, label %_ZNK4llvm15InstrProfRecord16getNumValueKindsEv.exit, label %_ZNK4llvm15InstrProfRecord20getValueSitesForKindEj.exit.i

_ZNK4llvm15InstrProfRecord20getValueSitesForKindEj.exit.i: ; preds = %1, %_ZNK4llvm15InstrProfRecord20getValueSitesForKindEj.exit.i
  %indvars.iv.i = phi i64 [ %indvars.iv.next.i, %_ZNK4llvm15InstrProfRecord20getValueSitesForKindEj.exit.i ], [ 0, %1 ]
  %.056.i = phi i32 [ %10, %_ZNK4llvm15InstrProfRecord20getValueSitesForKindEj.exit.i ], [ 0, %1 ]
  %4 = getelementptr inbounds nuw [3 x %"class.std::vector.219"], ptr %3, i64 0, i64 %indvars.iv.i
  %5 = load ptr, ptr %4, align 8
  %6 = getelementptr inbounds nuw i8, ptr %4, i64 8
  %7 = load ptr, ptr %6, align 8
  %8 = icmp ne ptr %7, %5
  %9 = zext i1 %8 to i32
  %10 = add i32 %.056.i, %9
  %indvars.iv.next.i = add nuw nsw i64 %indvars.iv.i, 1
  %exitcond.not.i = icmp eq i64 %indvars.iv.next.i, 3
  br i1 %exitcond.not.i, label %_ZNK4llvm15InstrProfRecord16getNumValueKindsEv.exit, label %_ZNK4llvm15InstrProfRecord20getValueSitesForKindEj.exit.i, !llvm.loop !146

_ZNK4llvm15InstrProfRecord16getNumValueKindsEv.exit: ; preds = %_ZNK4llvm15InstrProfRecord20getValueSitesForKindEj.exit.i, %1
  %.us-phi.i = phi i32 [ 0, %1 ], [ %10, %_ZNK4llvm15InstrProfRecord20getValueSitesForKindEj.exit.i ]
  ret i32 %.us-phi.i
}